; ModuleID = 'source-C-CXX/60/959.cpp'
source_filename = "source-C-CXX/60/959.cpp"
target datalayout = "e-m:e-p270:32:32-p271:32:32-p272:64:64-i64:64-f80:128-n8:16:32:64-S128"
target triple = "x86_64-pc-linux-gnu"

%"class.std::ios_base::Init" = type { i8 }
%"class.std::basic_istream" = type { i32 (...)**, i64, %"class.std::basic_ios" }
%"class.std::basic_ios" = type { %"class.std::ios_base", %"class.std::basic_ostream"*, i8, i8, %"class.std::basic_streambuf"*, %"class.std::ctype"*, %"class.std::num_put"*, %"class.std::num_get"* }
%"class.std::ios_base" = type { i32 (...)**, i64, i64, i32, i32, i32, %"struct.std::ios_base::_Callback_list"*, %"struct.std::ios_base::_Words", [8 x %"struct.std::ios_base::_Words"], i32, %"struct.std::ios_base::_Words"*, %"class.std::locale" }
%"struct.std::ios_base::_Callback_list" = type { %"struct.std::ios_base::_Callback_list"*, void (i32, %"class.std::ios_base"*, i32)*, i32, i32 }
%"struct.std::ios_base::_Words" = type { i8*, i64 }
%"class.std::locale" = type { %"class.std::locale::_Impl"* }
%"class.std::locale::_Impl" = type { i32, %"class.std::locale::facet"**, i64, %"class.std::locale::facet"**, i8** }
%"class.std::locale::facet" = type <{ i32 (...)**, i32, [4 x i8] }>
%"class.std::basic_ostream" = type { i32 (...)**, %"class.std::basic_ios" }
%"class.std::basic_streambuf" = type { i32 (...)**, i8*, i8*, i8*, i8*, i8*, i8*, %"class.std::locale" }
%"class.std::ctype" = type <{ %"class.std::locale::facet.base", [4 x i8], %struct.__locale_struct*, i8, [7 x i8], i32*, i32*, i16*, i8, [256 x i8], [256 x i8], i8, [6 x i8] }>
%"class.std::locale::facet.base" = type <{ i32 (...)**, i32 }>
%struct.__locale_struct = type { [13 x %struct.__locale_data*], i16*, i32*, i32*, [13 x i8*] }
%struct.__locale_data = type opaque
%"class.std::num_put" = type { %"class.std::locale::facet.base", [4 x i8] }
%"class.std::num_get" = type { %"class.std::locale::facet.base", [4 x i8] }

@_ZStL8__ioinit = internal global %"class.std::ios_base::Init" zeroinitializer, align 1
@__dso_handle = external hidden global i8
@_ZSt3cin = external global %"class.std::basic_istream", align 8
@_ZSt4cout = external global %"class.std::basic_ostream", align 8
@llvm.global_ctors = appending global [1 x { i32, void ()*, i8* }] [{ i32, void ()*, i8* } { i32 65535, void ()* @_GLOBAL__sub_I_959.cpp, i8* null }]

declare void @_ZNSt8ios_base4InitC1Ev(%"class.std::ios_base::Init"* nonnull align 1 dereferenceable(1)) unnamed_addr #0

; Function Attrs: nounwind
declare void @_ZNSt8ios_base4InitD1Ev(%"class.std::ios_base::Init"* nonnull align 1 dereferenceable(1)) unnamed_addr #1

; Function Attrs: nofree nounwind
declare i32 @__cxa_atexit(void (i8*)*, i8*, i8*) local_unnamed_addr #2

; Function Attrs: mustprogress norecurse sspstrong uwtable
define dso_local i32 @main() local_unnamed_addr #3 {
  %1 = alloca i32, align 4
  %2 = alloca i32, align 4
  %3 = bitcast i32* %1 to i8*
  call void @llvm.lifetime.start.p0i8(i64 4, i8* nonnull %3) #7
  %4 = bitcast i32* %2 to i8*
  call void @llvm.lifetime.start.p0i8(i64 4, i8* nonnull %4) #7
  %5 = call nonnull align 8 dereferenceable(16) %"class.std::basic_istream"* @_ZNSirsERi(%"class.std::basic_istream"* nonnull align 8 dereferenceable(16) @_ZSt3cin, i32* nonnull align 4 dereferenceable(4) %1)
  %6 = load i32, i32* %1, align 4, !tbaa !5
  %7 = icmp sgt i32 %6, 0
  br i1 %7, label %9, label %8

8:                                                ; preds = %112, %0
  call void @llvm.lifetime.end.p0i8(i64 4, i8* nonnull %4) #7
  call void @llvm.lifetime.end.p0i8(i64 4, i8* nonnull %3) #7
  ret i32 0

9:                                                ; preds = %0, %112
  %10 = phi i32 [ %116, %112 ], [ 0, %0 ]
  %11 = phi i32 [ %114, %112 ], [ undef, %0 ]
  %12 = call nonnull align 8 dereferenceable(16) %"class.std::basic_istream"* @_ZNSirsERi(%"class.std::basic_istream"* nonnull align 8 dereferenceable(16) @_ZSt3cin, i32* nonnull align 4 dereferenceable(4) %2)
  %13 = load i32, i32* %2, align 4, !tbaa !5
  %14 = add i32 %13, -1
  %15 = icmp ult i32 %14, 2
  br i1 %15, label %25, label %16

16:                                               ; preds = %9
  %17 = icmp slt i32 %13, 3
  br i1 %17, label %67, label %18

18:                                               ; preds = %16
  %19 = add i32 %13, -2
  %20 = add i32 %13, -3
  %21 = and i32 %19, 7
  %22 = icmp ult i32 %20, 7
  br i1 %22, label %55, label %23

23:                                               ; preds = %18
  %24 = and i32 %19, -8
  br label %98

25:                                               ; preds = %9
  %26 = call nonnull align 8 dereferenceable(8) %"class.std::basic_ostream"* @_ZNSolsEi(%"class.std::basic_ostream"* nonnull align 8 dereferenceable(8) @_ZSt4cout, i32 1)
  %27 = bitcast %"class.std::basic_ostream"* %26 to i8**
  %28 = load i8*, i8** %27, align 8, !tbaa !9
  %29 = getelementptr i8, i8* %28, i64 -24
  %30 = bitcast i8* %29 to i64*
  %31 = load i64, i64* %30, align 8
  %32 = bitcast %"class.std::basic_ostream"* %26 to i8*
  %33 = add nsw i64 %31, 240
  %34 = getelementptr inbounds i8, i8* %32, i64 %33
  %35 = bitcast i8* %34 to %"class.std::ctype"**
  %36 = load %"class.std::ctype"*, %"class.std::ctype"** %35, align 8, !tbaa !11
  %37 = icmp eq %"class.std::ctype"* %36, null
  br i1 %37, label %38, label %39

38:                                               ; preds = %25
  call void @_ZSt16__throw_bad_castv() #8
  unreachable

39:                                               ; preds = %25
  %40 = getelementptr inbounds %"class.std::ctype", %"class.std::ctype"* %36, i64 0, i32 8
  %41 = load i8, i8* %40, align 8, !tbaa !15
  %42 = icmp eq i8 %41, 0
  br i1 %42, label %46, label %43

43:                                               ; preds = %39
  %44 = getelementptr inbounds %"class.std::ctype", %"class.std::ctype"* %36, i64 0, i32 9, i64 10
  %45 = load i8, i8* %44, align 1, !tbaa !17
  br label %52

46:                                               ; preds = %39
  call void @_ZNKSt5ctypeIcE13_M_widen_initEv(%"class.std::ctype"* nonnull align 8 dereferenceable(570) %36)
  %47 = bitcast %"class.std::ctype"* %36 to i8 (%"class.std::ctype"*, i8)***
  %48 = load i8 (%"class.std::ctype"*, i8)**, i8 (%"class.std::ctype"*, i8)*** %47, align 8, !tbaa !9
  %49 = getelementptr inbounds i8 (%"class.std::ctype"*, i8)*, i8 (%"class.std::ctype"*, i8)** %48, i64 6
  %50 = load i8 (%"class.std::ctype"*, i8)*, i8 (%"class.std::ctype"*, i8)** %49, align 8
  %51 = call signext i8 %50(%"class.std::ctype"* nonnull align 8 dereferenceable(570) %36, i8 signext 10)
  br label %52

52:                                               ; preds = %43, %46
  %53 = phi i8 [ %45, %43 ], [ %51, %46 ]
  %54 = call nonnull align 8 dereferenceable(8) %"class.std::basic_ostream"* @_ZNSo3putEc(%"class.std::basic_ostream"* nonnull align 8 dereferenceable(8) %26, i8 signext %53)
  br label %112

55:                                               ; preds = %98, %18
  %56 = phi i32 [ undef, %18 ], [ %109, %98 ]
  %57 = phi i32 [ 1, %18 ], [ %109, %98 ]
  %58 = phi i32 [ 1, %18 ], [ %108, %98 ]
  %59 = icmp eq i32 %21, 0
  br i1 %59, label %67, label %60

60:                                               ; preds = %55, %60
  %61 = phi i32 [ %64, %60 ], [ %57, %55 ]
  %62 = phi i32 [ %61, %60 ], [ %58, %55 ]
  %63 = phi i32 [ %65, %60 ], [ %21, %55 ]
  %64 = add nsw i32 %61, %62
  %65 = add i32 %63, -1
  %66 = icmp eq i32 %65, 0
  br i1 %66, label %67, label %60, !llvm.loop !18

67:                                               ; preds = %55, %60, %16
  %68 = phi i32 [ %11, %16 ], [ %56, %55 ], [ %64, %60 ]
  %69 = call nonnull align 8 dereferenceable(8) %"class.std::basic_ostream"* @_ZNSolsEi(%"class.std::basic_ostream"* nonnull align 8 dereferenceable(8) @_ZSt4cout, i32 %68)
  %70 = bitcast %"class.std::basic_ostream"* %69 to i8**
  %71 = load i8*, i8** %70, align 8, !tbaa !9
  %72 = getelementptr i8, i8* %71, i64 -24
  %73 = bitcast i8* %72 to i64*
  %74 = load i64, i64* %73, align 8
  %75 = bitcast %"class.std::basic_ostream"* %69 to i8*
  %76 = add nsw i64 %74, 240
  %77 = getelementptr inbounds i8, i8* %75, i64 %76
  %78 = bitcast i8* %77 to %"class.std::ctype"**
  %79 = load %"class.std::ctype"*, %"class.std::ctype"** %78, align 8, !tbaa !11
  %80 = icmp eq %"class.std::ctype"* %79, null
  br i1 %80, label %81, label %82

81:                                               ; preds = %67
  call void @_ZSt16__throw_bad_castv() #8
  unreachable

82:                                               ; preds = %67
  %83 = getelementptr inbounds %"class.std::ctype", %"class.std::ctype"* %79, i64 0, i32 8
  %84 = load i8, i8* %83, align 8, !tbaa !15
  %85 = icmp eq i8 %84, 0
  br i1 %85, label %89, label %86

86:                                               ; preds = %82
  %87 = getelementptr inbounds %"class.std::ctype", %"class.std::ctype"* %79, i64 0, i32 9, i64 10
  %88 = load i8, i8* %87, align 1, !tbaa !17
  br label %95

89:                                               ; preds = %82
  call void @_ZNKSt5ctypeIcE13_M_widen_initEv(%"class.std::ctype"* nonnull align 8 dereferenceable(570) %79)
  %90 = bitcast %"class.std::ctype"* %79 to i8 (%"class.std::ctype"*, i8)***
  %91 = load i8 (%"class.std::ctype"*, i8)**, i8 (%"class.std::ctype"*, i8)*** %90, align 8, !tbaa !9
  %92 = getelementptr inbounds i8 (%"class.std::ctype"*, i8)*, i8 (%"class.std::ctype"*, i8)** %91, i64 6
  %93 = load i8 (%"class.std::ctype"*, i8)*, i8 (%"class.std::ctype"*, i8)** %92, align 8
  %94 = call signext i8 %93(%"class.std::ctype"* nonnull align 8 dereferenceable(570) %79, i8 signext 10)
  br label %95

95:                                               ; preds = %86, %89
  %96 = phi i8 [ %88, %86 ], [ %94, %89 ]
  %97 = call nonnull align 8 dereferenceable(8) %"class.std::basic_ostream"* @_ZNSo3putEc(%"class.std::basic_ostream"* nonnull align 8 dereferenceable(8) %69, i8 signext %96)
  br label %112

98:                                               ; preds = %98, %23
  %99 = phi i32 [ 1, %23 ], [ %109, %98 ]
  %100 = phi i32 [ 1, %23 ], [ %108, %98 ]
  %101 = phi i32 [ %24, %23 ], [ %110, %98 ]
  %102 = add nsw i32 %99, %100
  %103 = add nsw i32 %102, %99
  %104 = add nsw i32 %103, %102
  %105 = add nsw i32 %104, %103
  %106 = add nsw i32 %105, %104
  %107 = add nsw i32 %106, %105
  %108 = add nsw i32 %107, %106
  %109 = add nsw i32 %108, %107
  %110 = add i32 %101, -8
  %111 = icmp eq i32 %110, 0
  br i1 %111, label %55, label %98, !llvm.loop !20

112:                                              ; preds = %52, %95
  %113 = phi %"class.std::basic_ostream"* [ %54, %52 ], [ %97, %95 ]
  %114 = phi i32 [ %11, %52 ], [ %68, %95 ]
  %115 = call nonnull align 8 dereferenceable(8) %"class.std::basic_ostream"* @_ZNSo5flushEv(%"class.std::basic_ostream"* nonnull align 8 dereferenceable(8) %113)
  %116 = add nuw nsw i32 %10, 1
  %117 = load i32, i32* %1, align 4, !tbaa !5
  %118 = icmp slt i32 %116, %117
  br i1 %118, label %9, label %8, !llvm.loop !22
}

; Function Attrs: argmemonly mustprogress nofree nosync nounwind willreturn
declare void @llvm.lifetime.start.p0i8(i64 immarg, i8* nocapture) #4

declare nonnull align 8 dereferenceable(16) %"class.std::basic_istream"* @_ZNSirsERi(%"class.std::basic_istream"* nonnull align 8 dereferenceable(16), i32* nonnull align 4 dereferenceable(4)) local_unnamed_addr #0

declare nonnull align 8 dereferenceable(8) %"class.std::basic_ostream"* @_ZNSolsEi(%"class.std::basic_ostream"* nonnull align 8 dereferenceable(8), i32) local_unnamed_addr #0

; Function Attrs: argmemonly mustprogress nofree nosync nounwind willreturn
declare void @llvm.lifetime.end.p0i8(i64 immarg, i8* nocapture) #4

declare nonnull align 8 dereferenceable(8) %"class.std::basic_ostream"* @_ZNSo3putEc(%"class.std::basic_ostream"* nonnull align 8 dereferenceable(8), i8 signext) local_unnamed_addr #0

declare nonnull align 8 dereferenceable(8) %"class.std::basic_ostream"* @_ZNSo5flushEv(%"class.std::basic_ostream"* nonnull align 8 dereferenceable(8)) local_unnamed_addr #0

; Function Attrs: noreturn
declare void @_ZSt16__throw_bad_castv() local_unnamed_addr #5

declare void @_ZNKSt5ctypeIcE13_M_widen_initEv(%"class.std::ctype"* nonnull align 8 dereferenceable(570)) local_unnamed_addr #0

; Function Attrs: sspstrong uwtable
define internal void @_GLOBAL__sub_I_959.cpp() #6 section ".text.startup" {
  tail call void @_ZNSt8ios_base4InitC1Ev(%"class.std::ios_base::Init"* nonnull align 1 dereferenceable(1) @_ZStL8__ioinit)
  %1 = tail call i32 @__cxa_atexit(void (i8*)* bitcast (void (%"class.std::ios_base::Init"*)* @_ZNSt8ios_base4InitD1Ev to void (i8*)*), i8* getelementptr inbounds (%"class.std::ios_base::Init", %"class.std::ios_base::Init"* @_ZStL8__ioinit, i64 0, i32 0), i8* nonnull @__dso_handle) #7
  ret void
}


!llvm.module.flags = !{!0, !1, !2, !3}
!llvm.ident = !{!4}

!0 = !{i32 1, !"wchar_size", i32 4}
!1 = !{i32 7, !"PIC Level", i32 2}
!2 = !{i32 7, !"PIE Level", i32 2}
!3 = !{i32 7, !"uwtable", i32 1}
!4 = !{!"clang version 13.0.0"}
!5 = !{!6, !6, i64 0}
!6 = !{!"int", !7, i64 0}
!7 = !{!"omnipotent char", !8, i64 0}
!8 = !{!"Simple C++ TBAA"}
!9 = !{!10, !10, i64 0}
!10 = !{!"vtable pointer", !8, i64 0}
!11 = !{!12, !13, i64 240}
!12 = !{!"_ZTSSt9basic_iosIcSt11char_traitsIcEE", !13, i64 216, !7, i64 224, !14, i64 225, !13, i64 232, !13, i64 240, !13, i64 248, !13, i64 256}
!13 = !{!"any pointer", !7, i64 0}
!14 = !{!"bool", !7, i64 0}
!15 = !{!16, !7, i64 56}
!16 = !{!"_ZTSSt5ctypeIcE", !13, i64 16, !14, i64 24, !13, i64 32, !13, i64 40, !13, i64 48, !7, i64 56, !7, i64 57, !7, i64 313, !7, i64 569}
!17 = !{!7, !7, i64 0}
!18 = distinct !{!18, !19}
!19 = !{!"llvm.loop.unroll.disable"}
!20 = distinct !{!20, !21}
!21 = !{!"llvm.loop.mustprogress"}
!22 = distinct !{!22, !21}
